; Function Attrs: mustprogress nounwind uwtable
define hidden void @_ZN12LIRGenerator15access_store_atEm9BasicTypeR7LIRItem7LIR_OprS3_P12CodeEmitInfoS5_(ptr noundef nonnull align 8 dereferenceable(232) %0, i64 noundef %1, i8 noundef zeroext %2, ptr noundef nonnull align 8 dereferenceable(40) %3, i64 %4, i64 %5, ptr noundef %6, ptr noundef %7) local_unnamed_addr #3 align 2 {
  %9 = alloca %class.LIRAccess, align 8
  store ptr %0, ptr %9, align 8
  %10 = getelementptr inbounds i8, ptr %9, i64 8
  %11 = and i8 %2, -2
  %or.cond.i.i.i = icmp eq i8 %11, 12
  %spec.select.i.i = select i1 %or.cond.i.i.i, i64 4, i64 0
  %12 = or i64 %spec.select.i.i, %1
  %13 = or i64 %12, 1073741824
  %14 = and i64 %1, 245760
  %15 = icmp eq i64 %14, 0
  %16 = and i64 %12, 4
  %17 = icmp ne i64 %16, 0
  %18 = and i1 %15, %17
  %19 = select i1 %18, i64 16384, i64 0
  %20 = and i64 %1, 1984
  %21 = icmp eq i64 %20, 0
  %22 = select i1 %21, i64 64, i64 0
  %23 = and i64 %1, 14336
  %24 = icmp eq i64 %23, 0
  %25 = select i1 %24, i64 8192, i64 0
  %26 = or disjoint i64 %25, %22
  %27 = or i64 %26, %13
  %28 = or i64 %27, %19
  store i64 %28, ptr %10, align 8
  %29 = getelementptr inbounds i8, ptr %9, i64 16
  store ptr %3, ptr %29, align 8
  %30 = getelementptr inbounds i8, ptr %9, i64 24
  %31 = getelementptr inbounds i8, ptr %9, i64 40
  call void @llvm.memset.p0.i64(ptr noundef nonnull align 8 dereferenceable(16) %30, i8 0, i64 16, i1 false)
  store i64 %4, ptr %31, align 8
  %32 = getelementptr inbounds i8, ptr %9, i64 48
  store i8 %2, ptr %32, align 8
  %33 = getelementptr inbounds i8, ptr %9, i64 56
  store i64 0, ptr %33, align 8
  %34 = getelementptr inbounds i8, ptr %9, i64 64
  store ptr %6, ptr %34, align 8
  %35 = getelementptr inbounds i8, ptr %9, i64 72
  store ptr %7, ptr %35, align 8
  %36 = and i64 %1, 2048
  %.not = icmp eq i64 %36, 0
  %37 = getelementptr inbounds i8, ptr %0, i64 224
  %38 = load ptr, ptr %37, align 8
  br i1 %.not, label %40, label %39

39:                                               ; preds = %8
  call void @_ZN12BarrierSetC18store_atER9LIRAccess7LIR_Opr(ptr noundef nonnull align 8 dereferenceable(8) %38, ptr noundef nonnull align 8 dereferenceable(80) %9, i64 %5) #17
  br label %44

40:                                               ; preds = %8
  %41 = load ptr, ptr %38, align 8
  %42 = getelementptr inbounds i8, ptr %41, i64 56
  %43 = load ptr, ptr %42, align 8
  call void %43(ptr noundef nonnull align 8 dereferenceable(8) %38, ptr noundef nonnull align 8 dereferenceable(80) %9, i64 %5) #17
  br label %44

44:                                               ; preds = %40, %39
  ret void
}